target datalayout = "e-m:e-p270:32:32-p271:32:32-p272:64:64-i64:64-i128:128-f80:128-n8:16:32:64-S128"
target triple = "x86_64-pc-linux-gnu"

%struct.__va_list_tag = type { i32, i32, ptr, ptr }

; Function Attrs: mustprogress nounwind uwtable
define internal noundef zeroext i1 @_ZN4absl16raw_log_internal12_GLOBAL__N_18DoRawLogEPPcPiPKcz(ptr noundef %0, ptr noundef %1, ptr noundef %2, ...) #2 {
  %4 = alloca i1, align 1
  %5 = alloca ptr, align 8
  %6 = alloca ptr, align 8
  %7 = alloca ptr, align 8
  %8 = alloca [1 x %struct.__va_list_tag], align 16
  %9 = alloca i32, align 4
  %10 = alloca i32, align 4
  store ptr %0, ptr %5, align 8, !tbaa !23
  store ptr %1, ptr %6, align 8, !tbaa !25
  store ptr %2, ptr %7, align 8, !tbaa !4
  %11 = load ptr, ptr %6, align 8, !tbaa !25
  %12 = load i32, ptr %11, align 4, !tbaa !13
  %13 = icmp slt i32 %12, 0
  br i1 %13, label %14, label %15

14:                                               ; preds = %3
  store i1 false, ptr %4, align 1
  br label %45

15:                                               ; preds = %3
  call void @llvm.lifetime.start.p0(i64 24, ptr %8) #9
  %16 = getelementptr inbounds [1 x %struct.__va_list_tag], ptr %8, i64 0, i64 0
  call void @llvm.va_start.p0(ptr %16)
  call void @llvm.lifetime.start.p0(i64 4, ptr %9) #9
  %17 = load ptr, ptr %5, align 8, !tbaa !23
  %18 = load ptr, ptr %17, align 8, !tbaa !4
  %19 = load ptr, ptr %6, align 8, !tbaa !25
  %20 = load i32, ptr %19, align 4, !tbaa !13
  %21 = sext i32 %20 to i64
  %22 = load ptr, ptr %7, align 8, !tbaa !4
  %23 = getelementptr inbounds [1 x %struct.__va_list_tag], ptr %8, i64 0, i64 0
  %24 = call i32 @vsnprintf(ptr noundef %18, i64 noundef %21, ptr noundef %22, ptr noundef %23) #9
  store i32 %24, ptr %9, align 4, !tbaa !13
  %25 = getelementptr inbounds [1 x %struct.__va_list_tag], ptr %8, i64 0, i64 0
  call void @llvm.va_end.p0(ptr %25)
  %26 = load i32, ptr %9, align 4, !tbaa !13
  %27 = icmp slt i32 %26, 0
  br i1 %27, label %33, label %28

28:                                               ; preds = %15
  %29 = load i32, ptr %9, align 4, !tbaa !13
  %30 = load ptr, ptr %6, align 8, !tbaa !25
  %31 = load i32, ptr %30, align 4, !tbaa !13
  %32 = icmp sgt i32 %29, %31
  br i1 %32, label %33, label %34

33:                                               ; preds = %28, %15
  store i1 false, ptr %4, align 1
  store i32 1, ptr %10, align 4
  br label %44

34:                                               ; preds = %28
  %35 = load i32, ptr %9, align 4, !tbaa !13
  %36 = load ptr, ptr %6, align 8, !tbaa !25
  %37 = load i32, ptr %36, align 4, !tbaa !13
  %38 = sub nsw i32 %37, %35
  store i32 %38, ptr %36, align 4, !tbaa !13
  %39 = load i32, ptr %9, align 4, !tbaa !13
  %40 = load ptr, ptr %5, align 8, !tbaa !23
  %41 = load ptr, ptr %40, align 8, !tbaa !4
  %42 = sext i32 %39 to i64
  %43 = getelementptr inbounds i8, ptr %41, i64 %42
  store ptr %43, ptr %40, align 8, !tbaa !4
  store i1 true, ptr %4, align 1
  store i32 1, ptr %10, align 4
  br label %44

44:                                               ; preds = %34, %33
  call void @llvm.lifetime.end.p0(i64 4, ptr %9) #9
  call void @llvm.lifetime.end.p0(i64 24, ptr %8) #9
  br label %45

45:                                               ; preds = %44, %14
  %46 = load i1, ptr %4, align 1
  ret i1 %46
}