; Function Attrs: mustprogress nofree nounwind uwtable
define internal void @_ZN4absl16raw_log_internal12_GLOBAL__N_18DoRawLogEPPcPiPKcz(ptr noundef captures(none) %0, ptr noundef captures(none) %1, ptr noundef readonly captures(none) %2, ...) unnamed_addr #8 {
  %4 = alloca [1 x %struct.__va_list_tag], align 16
  %5 = load i32, ptr %1, align 4, !tbaa !4
  %6 = icmp slt i32 %5, 0
  br i1 %6, label %22, label %7

7:                                                ; preds = %3
  call void @llvm.lifetime.start.p0(i64 24, ptr nonnull %4) #13
  call void @llvm.va_start.p0(ptr nonnull %4)
  %8 = load ptr, ptr %0, align 8, !tbaa !8
  %9 = load i32, ptr %1, align 4, !tbaa !4
  %10 = sext i32 %9 to i64
  %11 = call i32 @vsnprintf(ptr noundef %8, i64 noundef %10, ptr noundef %2, ptr noundef nonnull %4) #13
  call void @llvm.va_end.p0(ptr nonnull %4)
  %12 = icmp slt i32 %11, 0
  br i1 %12, label %21, label %13

13:                                               ; preds = %7
  %14 = load i32, ptr %1, align 4, !tbaa !4
  %15 = icmp sgt i32 %11, %14
  br i1 %15, label %21, label %16

16:                                               ; preds = %13
  %17 = sub nsw i32 %14, %11
  store i32 %17, ptr %1, align 4, !tbaa !4
  %18 = load ptr, ptr %0, align 8, !tbaa !8
  %19 = zext nneg i32 %11 to i64
  %20 = getelementptr inbounds nuw i8, ptr %18, i64 %19
  store ptr %20, ptr %0, align 8, !tbaa !8
  br label %21

21:                                               ; preds = %7, %13, %16
  call void @llvm.lifetime.end.p0(i64 24, ptr nonnull %4) #13
  br label %22

22:                                               ; preds = %3, %21
  ret void
}